(lp0
cnumpy.core.multiarray
scalar
p1
(cnumpy
dtype
p2
(S'S7'
p3
I0
I1
tp4
Rp5
(I3
S'|'
p6
NNNI7
I1
I0
tp7
bS'VOG0496'
p8
tp9
Rp10
ag1
(g2
(S'S7'
p11
I0
I1
tp12
Rp13
(I3
S'|'
p14
NNNI7
I1
I0
tp15
bS'VOG5264'
p16
tp17
Rp18
ag1
(g2
(S'S7'
p19
I0
I1
tp20
Rp21
(I3
S'|'
p22
NNNI7
I1
I0
tp23
bS'VOG4730'
p24
tp25
Rp26
ag1
(g2
(S'S7'
p27
I0
I1
tp28
Rp29
(I3
S'|'
p30
NNNI7
I1
I0
tp31
bS'VOG5818'
p32
tp33
Rp34
ag1
(g2
(S'S7'
p35
I0
I1
tp36
Rp37
(I3
S'|'
p38
NNNI7
I1
I0
tp39
bS'VOG7281'
p40
tp41
Rp42
ag1
(g2
(S'S7'
p43
I0
I1
tp44
Rp45
(I3
S'|'
p46
NNNI7
I1
I0
tp47
bS'VOG6063'
p48
tp49
Rp50
ag1
(g2
(S'S7'
p51
I0
I1
tp52
Rp53
(I3
S'|'
p54
NNNI7
I1
I0
tp55
bS'VOG6030'
p56
tp57
Rp58
ag1
(g2
(S'S7'
p59
I0
I1
tp60
Rp61
(I3
S'|'
p62
NNNI7
I1
I0
tp63
bS'VOG1710'
p64
tp65
Rp66
ag1
(g2
(S'S7'
p67
I0
I1
tp68
Rp69
(I3
S'|'
p70
NNNI7
I1
I0
tp71
bS'VOG0996'
p72
tp73
Rp74
ag1
(g2
(S'S7'
p75
I0
I1
tp76
Rp77
(I3
S'|'
p78
NNNI7
I1
I0
tp79
bS'VOG4524'
p80
tp81
Rp82
ag1
(g2
(S'S7'
p83
I0
I1
tp84
Rp85
(I3
S'|'
p86
NNNI7
I1
I0
tp87
bS'VOG8021'
p88
tp89
Rp90
ag1
(g2
(S'S7'
p91
I0
I1
tp92
Rp93
(I3
S'|'
p94
NNNI7
I1
I0
tp95
bS'VOG8536'
p96
tp97
Rp98
ag1
(g2
(S'S7'
p99
I0
I1
tp100
Rp101
(I3
S'|'
p102
NNNI7
I1
I0
tp103
bS'VOG2368'
p104
tp105
Rp106
ag1
(g2
(S'S7'
p107
I0
I1
tp108
Rp109
(I3
S'|'
p110
NNNI7
I1
I0
tp111
bS'VOG1850'
p112
tp113
Rp114
ag1
(g2
(S'S7'
p115
I0
I1
tp116
Rp117
(I3
S'|'
p118
NNNI7
I1
I0
tp119
bS'VOG1031'
p120
tp121
Rp122
ag1
(g2
(S'S7'
p123
I0
I1
tp124
Rp125
(I3
S'|'
p126
NNNI7
I1
I0
tp127
bS'VOG0985'
p128
tp129
Rp130
ag1
(g2
(S'S7'
p131
I0
I1
tp132
Rp133
(I3
S'|'
p134
NNNI7
I1
I0
tp135
bS'VOG0274'
p136
tp137
Rp138
ag1
(g2
(S'S7'
p139
I0
I1
tp140
Rp141
(I3
S'|'
p142
NNNI7
I1
I0
tp143
bS'VOG4344'
p144
tp145
Rp146
ag1
(g2
(S'S7'
p147
I0
I1
tp148
Rp149
(I3
S'|'
p150
NNNI7
I1
I0
tp151
bS'VOG1844'
p152
tp153
Rp154
ag1
(g2
(S'S7'
p155
I0
I1
tp156
Rp157
(I3
S'|'
p158
NNNI7
I1
I0
tp159
bS'VOG0088'
p160
tp161
Rp162
ag1
(g2
(S'S7'
p163
I0
I1
tp164
Rp165
(I3
S'|'
p166
NNNI7
I1
I0
tp167
bS'VOG8607'
p168
tp169
Rp170
ag1
(g2
(S'S7'
p171
I0
I1
tp172
Rp173
(I3
S'|'
p174
NNNI7
I1
I0
tp175
bS'VOG4615'
p176
tp177
Rp178
ag1
(g2
(S'S7'
p179
I0
I1
tp180
Rp181
(I3
S'|'
p182
NNNI7
I1
I0
tp183
bS'VOG8992'
p184
tp185
Rp186
ag1
(g2
(S'S7'
p187
I0
I1
tp188
Rp189
(I3
S'|'
p190
NNNI7
I1
I0
tp191
bS'VOG3235'
p192
tp193
Rp194
ag1
(g2
(S'S7'
p195
I0
I1
tp196
Rp197
(I3
S'|'
p198
NNNI7
I1
I0
tp199
bS'VOG0092'
p200
tp201
Rp202
ag1
(g2
(S'S7'
p203
I0
I1
tp204
Rp205
(I3
S'|'
p206
NNNI7
I1
I0
tp207
bS'VOG4155'
p208
tp209
Rp210
ag1
(g2
(S'S7'
p211
I0
I1
tp212
Rp213
(I3
S'|'
p214
NNNI7
I1
I0
tp215
bS'VOG3532'
p216
tp217
Rp218
ag1
(g2
(S'S7'
p219
I0
I1
tp220
Rp221
(I3
S'|'
p222
NNNI7
I1
I0
tp223
bS'VOG1045'
p224
tp225
Rp226
ag1
(g2
(S'S7'
p227
I0
I1
tp228
Rp229
(I3
S'|'
p230
NNNI7
I1
I0
tp231
bS'VOG4149'
p232
tp233
Rp234
ag1
(g2
(S'S7'
p235
I0
I1
tp236
Rp237
(I3
S'|'
p238
NNNI7
I1
I0
tp239
bS'VOG8062'
p240
tp241
Rp242
ag1
(g2
(S'S7'
p243
I0
I1
tp244
Rp245
(I3
S'|'
p246
NNNI7
I1
I0
tp247
bS'VOG4562'
p248
tp249
Rp250
ag1
(g2
(S'S7'
p251
I0
I1
tp252
Rp253
(I3
S'|'
p254
NNNI7
I1
I0
tp255
bS'VOG7442'
p256
tp257
Rp258
ag1
(g2
(S'S7'
p259
I0
I1
tp260
Rp261
(I3
S'|'
p262
NNNI7
I1
I0
tp263
bS'VOG7446'
p264
tp265
Rp266
ag1
(g2
(S'S7'
p267
I0
I1
tp268
Rp269
(I3
S'|'
p270
NNNI7
I1
I0
tp271
bS'VOG0419'
p272
tp273
Rp274
ag1
(g2
(S'S7'
p275
I0
I1
tp276
Rp277
(I3
S'|'
p278
NNNI7
I1
I0
tp279
bS'VOG4319'
p280
tp281
Rp282
ag1
(g2
(S'S7'
p283
I0
I1
tp284
Rp285
(I3
S'|'
p286
NNNI7
I1
I0
tp287
bS'VOG8429'
p288
tp289
Rp290
ag1
(g2
(S'S7'
p291
I0
I1
tp292
Rp293
(I3
S'|'
p294
NNNI7
I1
I0
tp295
bS'VOG4409'
p296
tp297
Rp298
ag1
(g2
(S'S7'
p299
I0
I1
tp300
Rp301
(I3
S'|'
p302
NNNI7
I1
I0
tp303
bS'VOG1422'
p304
tp305
Rp306
ag1
(g2
(S'S8'
p307
I0
I1
tp308
Rp309
(I3
S'|'
p310
NNNI8
I1
I0
tp311
bS'VOG10018'
p312
tp313
Rp314
ag1
(g2
(S'S7'
p315
I0
I1
tp316
Rp317
(I3
S'|'
p318
NNNI7
I1
I0
tp319
bS'VOG3101'
p320
tp321
Rp322
ag1
(g2
(S'S7'
p323
I0
I1
tp324
Rp325
(I3
S'|'
p326
NNNI7
I1
I0
tp327
bS'VOG5441'
p328
tp329
Rp330
ag1
(g2
(S'S7'
p331
I0
I1
tp332
Rp333
(I3
S'|'
p334
NNNI7
I1
I0
tp335
bS'VOG4469'
p336
tp337
Rp338
ag1
(g2
(S'S7'
p339
I0
I1
tp340
Rp341
(I3
S'|'
p342
NNNI7
I1
I0
tp343
bS'VOG6988'
p344
tp345
Rp346
ag1
(g2
(S'S7'
p347
I0
I1
tp348
Rp349
(I3
S'|'
p350
NNNI7
I1
I0
tp351
bS'VOG4678'
p352
tp353
Rp354
ag1
(g2
(S'S7'
p355
I0
I1
tp356
Rp357
(I3
S'|'
p358
NNNI7
I1
I0
tp359
bS'VOG3722'
p360
tp361
Rp362
a.